; ModuleID = 'bench/lief/original/version.ll'
source_filename = "bench/lief/original/version.ll"
target datalayout = "e-m:e-p270:32:32-p271:32:32-p272:64:64-i64:64-i128:128-f80:128-n8:16:32:64-S128"
target triple = "x86_64-pc-linux-gnu"

@.str = private unnamed_addr constant [6 x i8] c"3.6.1\00", align 1
@.str.1 = private unnamed_addr constant [15 x i8] c"Mbed TLS 3.6.1\00", align 1

; Function Attrs: mustprogress nofree norecurse nosync nounwind willreturn memory(none) uwtable
define hidden noundef i32 @mbedtls_version_get_number() local_unnamed_addr #0 {
  ret i32 50725120
}

; Function Attrs: mustprogress nofree norecurse nosync nounwind willreturn memory(argmem: readwrite) uwtable
define hidden void @mbedtls_version_get_string(ptr noundef writeonly captures(none) initializes((0, 6)) %0) local_unnamed_addr #1 {
  tail call void @llvm.memcpy.p0.p0.i64(ptr noundef nonnull align 1 dereferenceable(6) %0, ptr noundef nonnull align 1 dereferenceable(6) @.str, i64 6, i1 false)
  ret void
}

; Function Attrs: mustprogress nocallback nofree nounwind willreturn memory(argmem: readwrite)
declare void @llvm.memcpy.p0.p0.i64(ptr noalias writeonly captures(none), ptr noalias readonly captures(none), i64, i1 immarg) #2

; Function Attrs: mustprogress nofree norecurse nosync nounwind willreturn memory(argmem: readwrite) uwtable
define hidden void @mbedtls_version_get_string_full(ptr noundef writeonly captures(none) initializes((0, 15)) %0) local_unnamed_addr #1 {
  tail call void @llvm.memcpy.p0.p0.i64(ptr noundef nonnull align 1 dereferenceable(15) %0, ptr noundef nonnull align 1 dereferenceable(15) @.str.1, i64 15, i1 false)
  ret void
}


!llvm.module.flags = !{!0, !1, !2}

!0 = !{i32 1, !"wchar_size", i32 4}
!1 = !{i32 8, !"PIC Level", i32 2}
!2 = !{i32 7, !"uwtable", i32 2}
